target datalayout = "e-m:e-p270:32:32-p271:32:32-p272:64:64-i64:64-i128:128-f80:128-n8:16:32:64-S128"
target triple = "x86_64-pc-linux-gnu"

%struct.aiScene = type { i32, ptr, i32, ptr, i32, ptr, i32, ptr, i32, ptr, i32, ptr, i32, ptr, ptr, %struct.aiString, i32, ptr, ptr }
%struct.aiString = type { i32, [1024 x i8] }
%struct.aiMesh = type { i32, i32, i32, ptr, ptr, ptr, ptr, [8 x ptr], [8 x ptr], [8 x i32], ptr, i32, ptr, i32, %struct.aiString, i32, ptr, i32, %struct.aiAABB, ptr }
%struct.aiAABB = type { %class.aiVector3t, %class.aiVector3t }
%class.aiVector3t = type { float, float, float }

@.str.1 = private unnamed_addr constant [57 x i8] c"ImproveCacheLocalityProcess skipped; there are no meshes\00", align 1
@.str.2 = private unnamed_addr constant [34 x i8] c"ImproveCacheLocalityProcess begin\00", align 1
@.str.3 = private unnamed_addr constant [20 x i8] c"Cache relevant are \00", align 1
@.str.4 = private unnamed_addr constant [10 x i8] c" meshes (\00", align 1
@.str.5 = private unnamed_addr constant [33 x i8] c" faces). Average output ACMR is \00", align 1
@.str.6 = private unnamed_addr constant [39 x i8] c"ImproveCacheLocalityProcess finished. \00", align 1

; Function Attrs: mustprogress uwtable
define hidden void @_ZN6Assimp27ImproveCacheLocalityProcess7ExecuteEP7aiScene(ptr noundef nonnull align 8 dereferenceable(28) %0, ptr noundef %1) unnamed_addr #2 align 2 {
  %3 = alloca ptr, align 8
  %4 = alloca ptr, align 8
  %5 = alloca float, align 4
  %6 = alloca i32, align 4
  %7 = alloca i32, align 4
  %8 = alloca i32, align 4
  %9 = alloca float, align 4
  %10 = alloca float, align 4
  store ptr %0, ptr %3, align 8
  store ptr %1, ptr %4, align 8
  %11 = load ptr, ptr %3, align 8
  %12 = load ptr, ptr %4, align 8
  %13 = getelementptr inbounds nuw %struct.aiScene, ptr %12, i32 0, i32 2
  %14 = load i32, ptr %13, align 8
  %15 = icmp ne i32 %14, 0
  br i1 %15, label %18, label %16

16:                                               ; preds = %2
  %17 = call noundef ptr @_ZN6Assimp13DefaultLogger3getEv()
  call void @_ZN6Assimp6Logger5debugEPKc(ptr noundef nonnull align 8 dereferenceable(12) %17, ptr noundef @.str.1)
  br label %74

18:                                               ; preds = %2
  %19 = call noundef ptr @_ZN6Assimp13DefaultLogger3getEv()
  call void @_ZN6Assimp6Logger5debugEPKc(ptr noundef nonnull align 8 dereferenceable(12) %19, ptr noundef @.str.2)
  call void @llvm.lifetime.start.p0(i64 4, ptr %5) #16
  store float 0.000000e+00, ptr %5, align 4
  call void @llvm.lifetime.start.p0(i64 4, ptr %6) #16
  store i32 0, ptr %6, align 4
  call void @llvm.lifetime.start.p0(i64 4, ptr %7) #16
  store i32 0, ptr %7, align 4
  call void @llvm.lifetime.start.p0(i64 4, ptr %8) #16
  store i32 0, ptr %8, align 4
  br label %20

20:                                               ; preds = %57, %18
  %21 = load i32, ptr %8, align 4
  %22 = load ptr, ptr %4, align 8
  %23 = getelementptr inbounds nuw %struct.aiScene, ptr %22, i32 0, i32 2
  %24 = load i32, ptr %23, align 8
  %25 = icmp ult i32 %21, %24
  br i1 %25, label %27, label %26

26:                                               ; preds = %20
  call void @llvm.lifetime.end.p0(i64 4, ptr %8) #16
  br label %60

27:                                               ; preds = %20
  call void @llvm.lifetime.start.p0(i64 4, ptr %9) #16
  %28 = load ptr, ptr %4, align 8
  %29 = getelementptr inbounds nuw %struct.aiScene, ptr %28, i32 0, i32 3
  %30 = load ptr, ptr %29, align 8
  %31 = load i32, ptr %8, align 4
  %32 = zext i32 %31 to i64
  %33 = getelementptr inbounds nuw ptr, ptr %30, i64 %32
  %34 = load ptr, ptr %33, align 8
  %35 = load i32, ptr %8, align 4
  %36 = call noundef float @_ZN6Assimp27ImproveCacheLocalityProcess11ProcessMeshEP6aiMeshj(ptr noundef nonnull align 8 dereferenceable(28) %11, ptr noundef %34, i32 noundef %35)
  store float %36, ptr %9, align 4
  %37 = load float, ptr %9, align 4
  %38 = fcmp une float %37, 0.000000e+00
  br i1 %38, label %39, label %56

39:                                               ; preds = %27
  %40 = load ptr, ptr %4, align 8
  %41 = getelementptr inbounds nuw %struct.aiScene, ptr %40, i32 0, i32 3
  %42 = load ptr, ptr %41, align 8
  %43 = load i32, ptr %8, align 4
  %44 = zext i32 %43 to i64
  %45 = getelementptr inbounds nuw ptr, ptr %42, i64 %44
  %46 = load ptr, ptr %45, align 8
  %47 = getelementptr inbounds nuw %struct.aiMesh, ptr %46, i32 0, i32 2
  %48 = load i32, ptr %47, align 8
  %49 = load i32, ptr %6, align 4
  %50 = add i32 %49, %48
  store i32 %50, ptr %6, align 4
  %51 = load float, ptr %9, align 4
  %52 = load float, ptr %5, align 4
  %53 = fadd float %52, %51
  store float %53, ptr %5, align 4
  %54 = load i32, ptr %7, align 4
  %55 = add i32 %54, 1
  store i32 %55, ptr %7, align 4
  br label %56

56:                                               ; preds = %39, %27
  call void @llvm.lifetime.end.p0(i64 4, ptr %9) #16
  br label %57

57:                                               ; preds = %56
  %58 = load i32, ptr %8, align 4
  %59 = add i32 %58, 1
  store i32 %59, ptr %8, align 4
  br label %20, !llvm.loop !3

60:                                               ; preds = %26
  %61 = call noundef zeroext i1 @_ZN6Assimp13DefaultLogger12isNullLoggerEv()
  br i1 %61, label %73, label %62

62:                                               ; preds = %60
  %63 = load i32, ptr %6, align 4
  %64 = icmp ugt i32 %63, 0
  br i1 %64, label %65, label %71

65:                                               ; preds = %62
  %66 = call noundef ptr @_ZN6Assimp13DefaultLogger3getEv()
  call void @llvm.lifetime.start.p0(i64 4, ptr %10) #16
  %67 = load float, ptr %5, align 4
  %68 = load i32, ptr %6, align 4
  %69 = uitofp i32 %68 to float
  %70 = fdiv float %67, %69
  store float %70, ptr %10, align 4
  call void @_ZN6Assimp6Logger4infoIJRA20_KcRjRA10_S2_S5_RA33_S2_fEEEvDpOT_(ptr noundef nonnull align 8 dereferenceable(12) %66, ptr noundef nonnull align 1 dereferenceable(20) @.str.3, ptr noundef nonnull align 4 dereferenceable(4) %7, ptr noundef nonnull align 1 dereferenceable(10) @.str.4, ptr noundef nonnull align 4 dereferenceable(4) %6, ptr noundef nonnull align 1 dereferenceable(33) @.str.5, ptr noundef nonnull align 4 dereferenceable(4) %10)
  call void @llvm.lifetime.end.p0(i64 4, ptr %10) #16
  br label %71

71:                                               ; preds = %65, %62
  %72 = call noundef ptr @_ZN6Assimp13DefaultLogger3getEv()
  call void @_ZN6Assimp6Logger5debugEPKc(ptr noundef nonnull align 8 dereferenceable(12) %72, ptr noundef @.str.6)
  br label %73

73:                                               ; preds = %71, %60
  call void @llvm.lifetime.end.p0(i64 4, ptr %7) #16
  call void @llvm.lifetime.end.p0(i64 4, ptr %6) #16
  call void @llvm.lifetime.end.p0(i64 4, ptr %5) #16
  br label %74

74:                                               ; preds = %73, %16
  ret void
}