; Function Attrs: mustprogress uwtable
define hidden void @_ZN6Assimp27ImproveCacheLocalityProcess7ExecuteEP7aiScene(ptr noundef nonnull readonly align 8 captures(none) dereferenceable(28) %0, ptr noundef readonly captures(none) %1) unnamed_addr #3 align 2 {
  %3 = alloca i32, align 4
  %4 = alloca i32, align 4
  %5 = alloca float, align 4
  %6 = getelementptr inbounds nuw i8, ptr %1, i64 16
  %7 = load i32, ptr %6, align 8
  %.not = icmp eq i32 %7, 0
  %8 = tail call noundef ptr @_ZN6Assimp13DefaultLogger3getEv()
  br i1 %.not, label %9, label %10

9:                                                ; preds = %2
  tail call void @_ZN6Assimp6Logger5debugEPKc(ptr noundef nonnull align 8 dereferenceable(12) %8, ptr noundef nonnull @.str.1)
  br label %47

10:                                               ; preds = %2
  tail call void @_ZN6Assimp6Logger5debugEPKc(ptr noundef nonnull align 8 dereferenceable(12) %8, ptr noundef nonnull @.str.2)
  call void @llvm.lifetime.start.p0(i64 4, ptr nonnull %3) #17
  call void @llvm.lifetime.start.p0(i64 4, ptr nonnull %4) #17
  %11 = load i32, ptr %6, align 8
  %.not22 = icmp eq i32 %11, 0
  br i1 %.not22, label %._crit_edge, label %.lr.ph

.lr.ph:                                           ; preds = %10
  %12 = getelementptr inbounds nuw i8, ptr %1, i64 24
  br label %15

._crit_edge:                                      ; preds = %33, %10
  %.lcssa17 = phi i32 [ 0, %10 ], [ %34, %33 ]
  %13 = phi i32 [ 0, %10 ], [ %35, %33 ]
  %.0.lcssa = phi float [ 0.000000e+00, %10 ], [ %.1, %33 ]
  store i32 %13, ptr %3, align 4
  store i32 %.lcssa17, ptr %4, align 4
  %14 = tail call noundef zeroext i1 @_ZN6Assimp13DefaultLogger12isNullLoggerEv()
  br i1 %14, label %46, label %39

15:                                               ; preds = %.lr.ph, %33
  %indvars.iv = phi i64 [ 0, %.lr.ph ], [ %indvars.iv.next, %33 ]
  %.019 = phi float [ 0.000000e+00, %.lr.ph ], [ %.1, %33 ]
  %16 = phi i32 [ 0, %.lr.ph ], [ %35, %33 ]
  %17 = phi i32 [ 0, %.lr.ph ], [ %34, %33 ]
  %18 = load ptr, ptr %12, align 8
  %19 = getelementptr inbounds nuw ptr, ptr %18, i64 %indvars.iv
  %20 = load ptr, ptr %19, align 8
  %21 = trunc nuw i64 %indvars.iv to i32
  %22 = tail call noundef float @_ZN6Assimp27ImproveCacheLocalityProcess11ProcessMeshEP6aiMeshj(ptr noundef nonnull align 8 dereferenceable(28) %0, ptr noundef %20, i32 noundef %21)
  %23 = fcmp une float %22, 0.000000e+00
  br i1 %23, label %24, label %33

24:                                               ; preds = %15
  %25 = load ptr, ptr %12, align 8
  %26 = getelementptr inbounds nuw ptr, ptr %25, i64 %indvars.iv
  %27 = load ptr, ptr %26, align 8
  %28 = getelementptr inbounds nuw i8, ptr %27, i64 8
  %29 = load i32, ptr %28, align 8
  %30 = add i32 %16, %29
  %31 = fadd float %.019, %22
  %32 = add i32 %17, 1
  br label %33

33:                                               ; preds = %24, %15
  %34 = phi i32 [ %32, %24 ], [ %17, %15 ]
  %35 = phi i32 [ %30, %24 ], [ %16, %15 ]
  %.1 = phi float [ %31, %24 ], [ %.019, %15 ]
  %indvars.iv.next = add nuw nsw i64 %indvars.iv, 1
  %36 = load i32, ptr %6, align 8
  %37 = zext i32 %36 to i64
  %38 = icmp samesign ult i64 %indvars.iv.next, %37
  br i1 %38, label %15, label %._crit_edge, !llvm.loop !3

39:                                               ; preds = %._crit_edge
  %.not15 = icmp eq i32 %13, 0
  br i1 %.not15, label %44, label %40

40:                                               ; preds = %39
  %41 = tail call noundef ptr @_ZN6Assimp13DefaultLogger3getEv()
  call void @llvm.lifetime.start.p0(i64 4, ptr nonnull %5) #17
  %42 = uitofp i32 %13 to float
  %43 = fdiv float %.0.lcssa, %42
  store float %43, ptr %5, align 4
  call void @_ZN6Assimp6Logger4infoIJRA20_KcRjRA10_S2_S5_RA33_S2_fEEEvDpOT_(ptr noundef nonnull align 8 dereferenceable(12) %41, ptr noundef nonnull align 1 dereferenceable(20) @.str.3, ptr noundef nonnull align 4 dereferenceable(4) %4, ptr noundef nonnull align 1 dereferenceable(10) @.str.4, ptr noundef nonnull align 4 dereferenceable(4) %3, ptr noundef nonnull align 1 dereferenceable(33) @.str.5, ptr noundef nonnull align 4 dereferenceable(4) %5)
  call void @llvm.lifetime.end.p0(i64 4, ptr nonnull %5) #17
  br label %44

44:                                               ; preds = %40, %39
  %45 = call noundef ptr @_ZN6Assimp13DefaultLogger3getEv()
  call void @_ZN6Assimp6Logger5debugEPKc(ptr noundef nonnull align 8 dereferenceable(12) %45, ptr noundef nonnull @.str.6)
  br label %46

46:                                               ; preds = %44, %._crit_edge
  call void @llvm.lifetime.end.p0(i64 4, ptr nonnull %4) #17
  call void @llvm.lifetime.end.p0(i64 4, ptr nonnull %3) #17
  br label %47

47:                                               ; preds = %46, %9
  ret void
}